target datalayout = "e-m:e-p270:32:32-p271:32:32-p272:64:64-i64:64-i128:128-f80:128-n8:16:32:64-S128"
target triple = "x86_64-pc-linux-gnu"

; Function Attrs: nounwind uwtable
define void @init_acc_pos(i32 noundef %0, ptr noundef %1, ptr noundef %2, ptr noundef %3, ptr noundef %4) #0 {
  %6 = alloca i32, align 4
  %7 = alloca ptr, align 8
  %8 = alloca ptr, align 8
  %9 = alloca ptr, align 8
  %10 = alloca ptr, align 8
  %11 = alloca i32, align 4
  %12 = alloca i32, align 4
  store i32 %0, ptr %6, align 4, !tbaa !3
  store ptr %1, ptr %7, align 8, !tbaa !59
  store ptr %2, ptr %8, align 8, !tbaa !59
  store ptr %3, ptr %9, align 8, !tbaa !59
  store ptr %4, ptr %10, align 8, !tbaa !59
  call void @llvm.lifetime.start.p0(i64 4, ptr %11) #10
  call void @llvm.lifetime.start.p0(i64 4, ptr %12) #10
  br label %13

13:                                               ; preds = %5
  br label %14

14:                                               ; preds = %13
  br label %15

15:                                               ; preds = %14
  store i32 0, ptr %11, align 4, !tbaa !3
  br label %16

16:                                               ; preds = %25, %15
  %17 = load i32, ptr %11, align 4, !tbaa !3
  %18 = load i32, ptr %6, align 4, !tbaa !3
  %19 = icmp ult i32 %17, %18
  br i1 %19, label %20, label %28

20:                                               ; preds = %16
  %21 = load ptr, ptr %10, align 8, !tbaa !59
  %22 = load i32, ptr %11, align 4, !tbaa !3
  %23 = sext i32 %22 to i64
  %24 = getelementptr inbounds i64, ptr %21, i64 %23
  store i64 0, ptr %24, align 8, !tbaa !7
  br label %25

25:                                               ; preds = %20
  %26 = load i32, ptr %11, align 4, !tbaa !3
  %27 = add nsw i32 %26, 1
  store i32 %27, ptr %11, align 4, !tbaa !3
  br label %16, !llvm.loop !77

28:                                               ; preds = %16
  %29 = load i32, ptr %6, align 4, !tbaa !3
  %30 = icmp ugt i32 %29, 0
  br i1 %30, label %31, label %80

31:                                               ; preds = %28
  %32 = load ptr, ptr %8, align 8, !tbaa !59
  %33 = load i32, ptr %6, align 4, !tbaa !3
  %34 = sub i32 %33, 1
  %35 = zext i32 %34 to i64
  %36 = getelementptr inbounds nuw i64, ptr %32, i64 %35
  store i64 1, ptr %36, align 8, !tbaa !7
  %37 = load i32, ptr %6, align 4, !tbaa !3
  %38 = sub nsw i32 %37, 2
  store i32 %38, ptr %11, align 4, !tbaa !3
  br label %39

39:                                               ; preds = %63, %31
  %40 = load i32, ptr %11, align 4, !tbaa !3
  %41 = icmp sge i32 %40, 0
  br i1 %41, label %42, label %66

42:                                               ; preds = %39
  %43 = load ptr, ptr %8, align 8, !tbaa !59
  %44 = load i32, ptr %11, align 4, !tbaa !3
  %45 = add nsw i32 %44, 1
  %46 = sext i32 %45 to i64
  %47 = getelementptr inbounds i64, ptr %43, i64 %46
  %48 = load i64, ptr %47, align 8, !tbaa !7
  %49 = load ptr, ptr %7, align 8, !tbaa !59
  %50 = load i32, ptr %11, align 4, !tbaa !3
  %51 = add nsw i32 %50, 1
  %52 = sext i32 %51 to i64
  %53 = getelementptr inbounds i64, ptr %49, i64 %52
  %54 = load i64, ptr %53, align 8, !tbaa !7
  %55 = mul i64 %48, %54
  %56 = load ptr, ptr %8, align 8, !tbaa !59
  %57 = load i32, ptr %11, align 4, !tbaa !3
  %58 = sext i32 %57 to i64
  %59 = getelementptr inbounds i64, ptr %56, i64 %58
  store i64 %55, ptr %59, align 8, !tbaa !7
  br label %60

60:                                               ; preds = %42
  br label %61

61:                                               ; preds = %60
  br label %62

62:                                               ; preds = %61
  br label %63

63:                                               ; preds = %62
  %64 = load i32, ptr %11, align 4, !tbaa !3
  %65 = add nsw i32 %64, -1
  store i32 %65, ptr %11, align 4, !tbaa !3
  br label %39, !llvm.loop !78

66:                                               ; preds = %39
  store i32 0, ptr %12, align 4, !tbaa !3
  br label %67

67:                                               ; preds = %76, %66
  %68 = load i32, ptr %12, align 4, !tbaa !3
  %69 = load i32, ptr %6, align 4, !tbaa !3
  %70 = icmp ult i32 %68, %69
  br i1 %70, label %71, label %79

71:                                               ; preds = %67
  %72 = load ptr, ptr %9, align 8, !tbaa !59
  %73 = load i32, ptr %12, align 4, !tbaa !3
  %74 = zext i32 %73 to i64
  %75 = getelementptr inbounds nuw i64, ptr %72, i64 %74
  store i64 0, ptr %75, align 8, !tbaa !7
  br label %76

76:                                               ; preds = %71
  %77 = load i32, ptr %12, align 4, !tbaa !3
  %78 = add i32 %77, 1
  store i32 %78, ptr %12, align 4, !tbaa !3
  br label %67, !llvm.loop !79

79:                                               ; preds = %67
  br label %80

80:                                               ; preds = %79, %28
  br label %81

81:                                               ; preds = %80
  br label %82

82:                                               ; preds = %81
  br label %83

83:                                               ; preds = %82
  call void @llvm.lifetime.end.p0(i64 4, ptr %12) #10
  call void @llvm.lifetime.end.p0(i64 4, ptr %11) #10
  ret void
}