; Function Attrs: nofree norecurse nosync nounwind memory(argmem: readwrite) uwtable
define void @init_acc_pos(i32 noundef %0, ptr noundef readonly captures(none) %1, ptr noundef captures(none) %2, ptr noundef writeonly captures(none) %3, ptr noundef writeonly captures(none) %4) local_unnamed_addr #9 {
  %.not28 = icmp eq i32 %0, 0
  br i1 %.not28, label %.loopexit, label %6

6:                                                ; preds = %5
  %7 = zext i32 %0 to i64
  %8 = shl nuw nsw i64 %7, 3
  tail call void @llvm.memset.p0.i64(ptr align 8 %4, i8 0, i64 %8, i1 false), !tbaa !7
  %9 = add i32 %0, -1
  %10 = zext i32 %9 to i64
  %11 = getelementptr inbounds nuw i64, ptr %2, i64 %10
  store i64 1, ptr %11, align 8, !tbaa !7
  %12 = icmp sgt i32 %0, 1
  br i1 %12, label %.lr.ph26.preheader, label %.preheader

.lr.ph26.preheader:                               ; preds = %6
  %13 = add nsw i32 %0, -2
  %14 = zext i32 %13 to i64
  %15 = shl nuw nsw i64 %14, 3
  %16 = getelementptr i8, ptr %2, i64 %15
  %scevgep = getelementptr i8, ptr %16, i64 8
  %load_initial = load i64, ptr %scevgep, align 8
  %invariant.gep = getelementptr i8, ptr %1, i64 8
  br label %.lr.ph26

.preheader:                                       ; preds = %.lr.ph26, %6
  %17 = tail call i32 @llvm.umax.i32(i32 %0, i32 1)
  %umax = zext i32 %17 to i64
  %18 = shl nuw nsw i64 %umax, 3
  tail call void @llvm.memset.p0.i64(ptr noundef nonnull align 8 dereferenceable(1) %3, i8 0, i64 %18, i1 false), !tbaa !7
  br label %.loopexit

.lr.ph26:                                         ; preds = %.lr.ph26.preheader, %.lr.ph26
  %store_forwarded = phi i64 [ %load_initial, %.lr.ph26.preheader ], [ %20, %.lr.ph26 ]
  %indvars.iv = phi i64 [ %14, %.lr.ph26.preheader ], [ %indvars.iv.next, %.lr.ph26 ]
  %gep = getelementptr i64, ptr %invariant.gep, i64 %indvars.iv
  %19 = load i64, ptr %gep, align 8, !tbaa !7
  %20 = mul i64 %19, %store_forwarded
  %21 = getelementptr inbounds nuw i64, ptr %2, i64 %indvars.iv
  store i64 %20, ptr %21, align 8, !tbaa !7
  %indvars.iv.next = add nsw i64 %indvars.iv, -1
  %.not = icmp eq i64 %indvars.iv, 0
  br i1 %.not, label %.preheader, label %.lr.ph26, !llvm.loop !63

.loopexit:                                        ; preds = %5, %.preheader
  ret void
}